; Function Attrs: nounwind uwtable
define dso_local range(i64 0, 2) i64 @multirange_empty(ptr noundef readonly captures(none) %0) local_unnamed_addr #0 {
  %2 = getelementptr inbounds nuw i8, ptr %0, i64 32
  %3 = load i64, ptr %2, align 8
  %4 = inttoptr i64 %3 to ptr
  %5 = tail call ptr @pg_detoast_datum(ptr noundef %4) #11
  %6 = getelementptr inbounds nuw i8, ptr %5, i64 8
  %7 = load i32, ptr %6, align 4
  %8 = icmp eq i32 %7, 0
  %9 = zext i1 %8 to i64
  ret i64 %9
}